target datalayout = "e-m:e-p270:32:32-p271:32:32-p272:64:64-i64:64-i128:128-f80:128-n8:16:32:64-S128"
target triple = "x86_64-pc-linux-gnu"

%"class.absl::lts_20240722::log_internal::LogMessage" = type { %"class.absl::lts_20240722::base_internal::ErrnoSaver", %"class.std::unique_ptr.106" }
%"class.absl::lts_20240722::base_internal::ErrnoSaver" = type { i32 }
%"class.std::unique_ptr.106" = type { %"struct.std::__uniq_ptr_data.107" }
%"struct.std::__uniq_ptr_data.107" = type { %"class.std::__uniq_ptr_impl.108" }
%"class.std::__uniq_ptr_impl.108" = type { %"class.std::tuple.109" }
%"class.std::tuple.109" = type { %"struct.std::_Tuple_impl.110" }
%"struct.std::_Tuple_impl.110" = type { %"struct.std::_Head_base.113" }
%"struct.std::_Head_base.113" = type { ptr }
%"class.absl::lts_20240722::log_internal::LogMessage::OstreamView" = type { %"class.std::basic_streambuf", ptr, %"class.absl::lts_20240722::Span", %"class.absl::lts_20240722::Span", %"class.absl::lts_20240722::Span" }
%"class.std::basic_streambuf" = type { ptr, ptr, ptr, ptr, ptr, ptr, ptr, %"class.std::locale" }
%"class.std::locale" = type { ptr }
%"class.absl::lts_20240722::Span" = type { ptr, i64 }

; Function Attrs: mustprogress nounwind uwtable
define linkonce_odr noundef nonnull align 8 dereferenceable(8) ptr @_ZNSt10_Head_baseILm0EPN4absl12lts_2024072212log_internal10LogMessage14LogMessageDataELb0EE7_M_headERKS6_(ptr noundef nonnull align 8 dereferenceable(8) %0) #4 comdat align 2 {
  %2 = alloca ptr, align 8
  store ptr %0, ptr %2, align 8, !tbaa !343
  %3 = load ptr, ptr %2, align 8, !tbaa !343
  %4 = getelementptr inbounds nuw %"struct.std::_Head_base.113", ptr %3, i32 0, i32 0
  ret ptr %4
}

; Function Attrs: mustprogress nounwind uwtable
define linkonce_odr noundef nonnull align 8 dereferenceable(8) ptr @_ZNSt11_Tuple_implILm0EJPN4absl12lts_2024072212log_internal10LogMessage14LogMessageDataESt14default_deleteIS4_EEE7_M_headERKS8_(ptr noundef nonnull align 8 dereferenceable(8) %0) #4 comdat align 2 {
  %2 = alloca ptr, align 8
  store ptr %0, ptr %2, align 8, !tbaa !341
  %3 = load ptr, ptr %2, align 8, !tbaa !341
  %4 = call noundef nonnull align 8 dereferenceable(8) ptr @_ZNSt10_Head_baseILm0EPN4absl12lts_2024072212log_internal10LogMessage14LogMessageDataELb0EE7_M_headERKS6_(ptr noundef nonnull align 8 dereferenceable(8) %3) #3
  ret ptr %4
}

; Function Attrs: mustprogress nounwind uwtable
define linkonce_odr noundef nonnull align 8 dereferenceable(8) ptr @_ZSt12__get_helperILm0EPN4absl12lts_2024072212log_internal10LogMessage14LogMessageDataEJSt14default_deleteIS4_EEERKT0_RKSt11_Tuple_implIXT_EJS8_DpT1_EE(ptr noundef nonnull align 8 dereferenceable(8) %0) #4 comdat {
  %2 = alloca ptr, align 8
  store ptr %0, ptr %2, align 8, !tbaa !341
  %3 = load ptr, ptr %2, align 8, !tbaa !341
  %4 = call noundef nonnull align 8 dereferenceable(8) ptr @_ZNSt11_Tuple_implILm0EJPN4absl12lts_2024072212log_internal10LogMessage14LogMessageDataESt14default_deleteIS4_EEE7_M_headERKS8_(ptr noundef nonnull align 8 dereferenceable(8) %3) #3
  ret ptr %4
}

; Function Attrs: mustprogress nounwind uwtable
define linkonce_odr noundef nonnull align 8 dereferenceable(8) ptr @_ZSt3getILm0EJPN4absl12lts_2024072212log_internal10LogMessage14LogMessageDataESt14default_deleteIS4_EEERKNSt13tuple_elementIXT_ESt5tupleIJDpT0_EEE4typeERKSC_(ptr noundef nonnull align 8 dereferenceable(8) %0) #4 comdat {
  %2 = alloca ptr, align 8
  store ptr %0, ptr %2, align 8, !tbaa !339
  %3 = load ptr, ptr %2, align 8, !tbaa !339
  %4 = call noundef nonnull align 8 dereferenceable(8) ptr @_ZSt12__get_helperILm0EPN4absl12lts_2024072212log_internal10LogMessage14LogMessageDataEJSt14default_deleteIS4_EEERKT0_RKSt11_Tuple_implIXT_EJS8_DpT1_EE(ptr noundef nonnull align 8 dereferenceable(8) %3) #3
  ret ptr %4
}

; Function Attrs: mustprogress nounwind uwtable
define linkonce_odr noundef ptr @_ZNKSt15__uniq_ptr_implIN4absl12lts_2024072212log_internal10LogMessage14LogMessageDataESt14default_deleteIS4_EE6_M_ptrEv(ptr noundef nonnull align 8 dereferenceable(8) %0) #4 comdat align 2 {
  %2 = alloca ptr, align 8
  store ptr %0, ptr %2, align 8, !tbaa !335
  %3 = load ptr, ptr %2, align 8
  %4 = getelementptr inbounds nuw %"class.std::__uniq_ptr_impl.108", ptr %3, i32 0, i32 0
  %5 = call noundef nonnull align 8 dereferenceable(8) ptr @_ZSt3getILm0EJPN4absl12lts_2024072212log_internal10LogMessage14LogMessageDataESt14default_deleteIS4_EEERKNSt13tuple_elementIXT_ESt5tupleIJDpT0_EEE4typeERKSC_(ptr noundef nonnull align 8 dereferenceable(8) %4) #3
  %6 = load ptr, ptr %5, align 8, !tbaa !337
  ret ptr %6
}

; Function Attrs: mustprogress nounwind uwtable
define linkonce_odr noundef ptr @_ZNKSt10unique_ptrIN4absl12lts_2024072212log_internal10LogMessage14LogMessageDataESt14default_deleteIS4_EE3getEv(ptr noundef nonnull align 8 dereferenceable(8) %0) #4 comdat align 2 {
  %2 = alloca ptr, align 8
  store ptr %0, ptr %2, align 8, !tbaa !331
  %3 = load ptr, ptr %2, align 8
  %4 = getelementptr inbounds nuw %"class.std::unique_ptr.106", ptr %3, i32 0, i32 0
  %5 = call noundef ptr @_ZNKSt15__uniq_ptr_implIN4absl12lts_2024072212log_internal10LogMessage14LogMessageDataESt14default_deleteIS4_EE6_M_ptrEv(ptr noundef nonnull align 8 dereferenceable(8) %4) #3
  ret ptr %5
}

; Function Attrs: mustprogress uwtable
define available_externally noundef nonnull align 8 dereferenceable(8) ptr @_ZNSolsEPKv(ptr noundef nonnull align 8 dereferenceable(8) %0, ptr noundef %1) #6 align 2 {
  %3 = alloca ptr, align 8
  %4 = alloca ptr, align 8
  store ptr %0, ptr %3, align 8, !tbaa !333
  store ptr %1, ptr %4, align 8, !tbaa !53
  %5 = load ptr, ptr %3, align 8
  %6 = load ptr, ptr %4, align 8, !tbaa !53
  %7 = call noundef nonnull align 8 dereferenceable(8) ptr @_ZNSo9_M_insertIPKvEERSoT_(ptr noundef nonnull align 8 dereferenceable(8) %5, ptr noundef %6)
  ret ptr %7
}

; Function Attrs: mustprogress nounwind uwtable
define internal noundef nonnull align 8 dereferenceable(8) ptr @_ZN4absl12lts_2024072212log_internal9NullGuardIPN9grpc_core12_GLOBAL__N_115AresDNSResolverEE5GuardERKS6_(ptr noundef nonnull align 8 dereferenceable(8) %0) #4 align 2 {
  %2 = alloca ptr, align 8
  store ptr %0, ptr %2, align 8, !tbaa !45
  %3 = load ptr, ptr %2, align 8, !tbaa !45
  ret ptr %3
}

; Function Attrs: mustprogress nounwind uwtable
define linkonce_odr noundef nonnull align 1 ptr @_ZNKSt10unique_ptrIN4absl12lts_2024072212log_internal10LogMessage14LogMessageDataESt14default_deleteIS4_EEdeEv(ptr noundef nonnull align 8 dereferenceable(8) %0) #4 comdat align 2 {
  %2 = alloca ptr, align 8
  store ptr %0, ptr %2, align 8, !tbaa !331
  %3 = load ptr, ptr %2, align 8
  br label %4

4:                                                ; preds = %1
  br label %5

5:                                                ; preds = %4
  br label %6

6:                                                ; preds = %5
  %7 = call noundef ptr @_ZNKSt10unique_ptrIN4absl12lts_2024072212log_internal10LogMessage14LogMessageDataESt14default_deleteIS4_EE3getEv(ptr noundef nonnull align 8 dereferenceable(8) %3) #3
  ret ptr %7
}

; Function Attrs: mustprogress noinline uwtable
define internal noundef nonnull align 8 dereferenceable(16) ptr @_ZN4absl12lts_2024072212log_internal10LogMessagelsIPN9grpc_core12_GLOBAL__N_115AresDNSResolverETnNSt9enable_ifIXntsr4absl16HasAbslStringifyIT_EE5valueEiE4typeELi0EEERS2_RKS9_(ptr noundef nonnull align 8 dereferenceable(16) %0, ptr noundef nonnull align 8 dereferenceable(8) %1) #23 align 2 personality ptr @__gxx_personality_v0 {
  %3 = alloca ptr, align 8
  %4 = alloca ptr, align 8
  %5 = alloca %"class.absl::lts_20240722::log_internal::LogMessage::OstreamView", align 8
  %6 = alloca ptr, align 8
  %7 = alloca i32, align 4
  store ptr %0, ptr %3, align 8, !tbaa !135
  store ptr %1, ptr %4, align 8, !tbaa !45
  %8 = load ptr, ptr %3, align 8
  call void @llvm.lifetime.start.p0(i64 120, ptr %5) #3
  %9 = getelementptr inbounds nuw %"class.absl::lts_20240722::log_internal::LogMessage", ptr %8, i32 0, i32 1
  %10 = call noundef nonnull align 1 ptr @_ZNKSt10unique_ptrIN4absl12lts_2024072212log_internal10LogMessage14LogMessageDataESt14default_deleteIS4_EEdeEv(ptr noundef nonnull align 8 dereferenceable(8) %9) #3
  call void @_ZN4absl12lts_2024072212log_internal10LogMessage11OstreamViewC1ERNS2_14LogMessageDataE(ptr noundef nonnull align 8 dereferenceable(120) %5, ptr noundef nonnull align 1 %10)
  %11 = invoke noundef nonnull align 8 dereferenceable(8) ptr @_ZN4absl12lts_2024072212log_internal10LogMessage11OstreamView6streamEv(ptr noundef nonnull align 8 dereferenceable(120) %5)
          to label %12 unwind label %19

12:                                               ; preds = %2
  %13 = load ptr, ptr %4, align 8, !tbaa !45
  %14 = invoke noundef nonnull align 8 dereferenceable(8) ptr @_ZN4absl12lts_2024072212log_internal9NullGuardIPN9grpc_core12_GLOBAL__N_115AresDNSResolverEE5GuardERKS6_(ptr noundef nonnull align 8 dereferenceable(8) %13)
          to label %15 unwind label %19

15:                                               ; preds = %12
  %16 = load ptr, ptr %14, align 8, !tbaa !47
  %17 = invoke noundef nonnull align 8 dereferenceable(8) ptr @_ZNSolsEPKv(ptr noundef nonnull align 8 dereferenceable(8) %11, ptr noundef %16)
          to label %18 unwind label %19

18:                                               ; preds = %15
  call void @_ZN4absl12lts_2024072212log_internal10LogMessage11OstreamViewD1Ev(ptr noundef nonnull align 8 dereferenceable(120) %5) #3
  call void @llvm.lifetime.end.p0(i64 120, ptr %5) #3
  ret ptr %8

19:                                               ; preds = %15, %12, %2
  %20 = landingpad { ptr, i32 }
          cleanup
  %21 = extractvalue { ptr, i32 } %20, 0
  store ptr %21, ptr %6, align 8
  %22 = extractvalue { ptr, i32 } %20, 1
  store i32 %22, ptr %7, align 4
  call void @_ZN4absl12lts_2024072212log_internal10LogMessage11OstreamViewD1Ev(ptr noundef nonnull align 8 dereferenceable(120) %5) #3
  call void @llvm.lifetime.end.p0(i64 120, ptr %5) #3
  br label %23

23:                                               ; preds = %19
  %24 = load ptr, ptr %6, align 8
  %25 = load i32, ptr %7, align 4
  %26 = insertvalue { ptr, i32 } poison, ptr %24, 0
  %27 = insertvalue { ptr, i32 } %26, i32 %25, 1
  resume { ptr, i32 } %27
}